target datalayout = "e-m:e-p270:32:32-p271:32:32-p272:64:64-i64:64-i128:128-f80:128-n8:16:32:64-S128"
target triple = "x86_64-pc-linux-gnu"

@.str = private unnamed_addr constant [7 x i8] c"%s: %s\00", align 1
@stderr = external global ptr, align 8
@.str.2 = private unnamed_addr constant [32 x i8] c"tMPI error: %s (in valid comm)\0A\00", align 1
@.str.3 = private unnamed_addr constant [16 x i8] c"tMPI error: %s\0A\00", align 1

; Function Attrs: mustprogress nounwind uwtable
define noundef i32 @_Z17tMPI_Error_stringiPcPm(i32 noundef %0, ptr noundef %1, ptr noundef %2) #0 {
  %4 = alloca i32, align 4
  %5 = alloca ptr, align 8
  %6 = alloca ptr, align 8
  store i32 %0, ptr %4, align 4
  store ptr %1, ptr %5, align 8
  store ptr %2, ptr %6, align 8
  %7 = load i32, ptr %4, align 4
  %8 = icmp slt i32 %7, 0
  br i1 %8, label %12, label %9

9:                                                ; preds = %3
  %10 = load i32, ptr %4, align 4
  %11 = icmp sge i32 %10, 28
  br i1 %11, label %12, label %13

12:                                               ; preds = %9, %3
  store i32 27, ptr %4, align 4
  br label %13

13:                                               ; preds = %12, %9
  %14 = load i32, ptr %4, align 4
  %15 = icmp ne i32 %14, 2
  br i1 %15, label %16, label %23

16:                                               ; preds = %13
  %17 = load ptr, ptr %5, align 8
  %18 = load i32, ptr %4, align 4
  %19 = sext i32 %18 to i64
  %20 = getelementptr inbounds [28 x ptr], ptr @_ZL11tmpi_errmsg, i64 0, i64 %19
  %21 = load ptr, ptr %20, align 8
  %22 = call ptr @strncpy(ptr noundef %17, ptr noundef %21, i64 noundef 256) #7
  br label %33

23:                                               ; preds = %13
  %24 = load ptr, ptr %5, align 8
  %25 = load i32, ptr %4, align 4
  %26 = sext i32 %25 to i64
  %27 = getelementptr inbounds [28 x ptr], ptr @_ZL11tmpi_errmsg, i64 0, i64 %26
  %28 = load ptr, ptr %27, align 8
  %29 = call ptr @__errno_location() #9
  %30 = load i32, ptr %29, align 4
  %31 = call ptr @strerror(i32 noundef %30) #7
  %32 = call i32 (ptr, i64, ptr, ...) @snprintf(ptr noundef %24, i64 noundef 256, ptr noundef @.str, ptr noundef %28, ptr noundef %31) #7
  br label %33

33:                                               ; preds = %23, %16
  %34 = load ptr, ptr %5, align 8
  %35 = call i64 @strlen(ptr noundef %34) #10
  %36 = load ptr, ptr %6, align 8
  store i64 %35, ptr %36, align 8
  ret i32 0
}

; Function Attrs: mustprogress nounwind uwtable
define void @_Z24tmpi_errors_are_fatal_fnPP10tmpi_comm_Pi(ptr noundef %0, ptr noundef %1) #0 {
  %3 = alloca ptr, align 8
  %4 = alloca ptr, align 8
  %5 = alloca [256 x i8], align 16
  %6 = alloca i64, align 8
  store ptr %0, ptr %3, align 8
  store ptr %1, ptr %4, align 8
  %7 = load ptr, ptr %4, align 8
  %8 = load i32, ptr %7, align 4
  %9 = getelementptr inbounds [256 x i8], ptr %5, i64 0, i64 0
  %10 = call noundef i32 @_Z17tMPI_Error_stringiPcPm(i32 noundef %8, ptr noundef %9, ptr noundef %6)
  %11 = load ptr, ptr %3, align 8
  %12 = icmp ne ptr %11, null
  br i1 %12, label %13, label %17

13:                                               ; preds = %2
  %14 = load ptr, ptr @stderr, align 8
  %15 = getelementptr inbounds [256 x i8], ptr %5, i64 0, i64 0
  %16 = call i32 (ptr, ptr, ...) @fprintf(ptr noundef %14, ptr noundef @.str.2, ptr noundef %15) #7
  br label %21

17:                                               ; preds = %2
  %18 = load ptr, ptr @stderr, align 8
  %19 = getelementptr inbounds [256 x i8], ptr %5, i64 0, i64 0
  %20 = call i32 (ptr, ptr, ...) @fprintf(ptr noundef %18, ptr noundef @.str.3, ptr noundef %19) #7
  br label %21

21:                                               ; preds = %17, %13
  call void @abort() #8
  unreachable
}